; Function Attrs: nounwind uwtable
define ptr @evbuffer_find(ptr noundef %0, ptr noundef readonly captures(none) %1, i64 noundef %2) local_unnamed_addr #1 {
  %4 = alloca %struct.evbuffer_ptr, align 8
  %5 = getelementptr inbounds nuw i8, ptr %0, i64 56
  %6 = load ptr, ptr %5, align 8
  %.not = icmp eq ptr %6, null
  br i1 %.not, label %10, label %7

7:                                                ; preds = %3
  %8 = load ptr, ptr getelementptr inbounds nuw (i8, ptr @evthread_lock_fns_, i64 24), align 8
  %9 = tail call i32 %8(i32 noundef 0, ptr noundef nonnull %6) #16
  br label %10

10:                                               ; preds = %7, %3
  call void @llvm.lifetime.start.p0(i64 24, ptr nonnull %4) #16
  call void @evbuffer_search_range(ptr dead_on_unwind nonnull writable sret(%struct.evbuffer_ptr) align 8 %4, ptr noundef nonnull readonly %0, ptr noundef readonly %1, i64 noundef %2, ptr noundef null, ptr noundef null)
  %.sroa.0.0.copyload = load i64, ptr %4, align 8
  call void @llvm.lifetime.end.p0(i64 24, ptr nonnull %4) #16
  %11 = icmp slt i64 %.sroa.0.0.copyload, 0
  br i1 %11, label %16, label %12

12:                                               ; preds = %10
  %13 = add i64 %.sroa.0.0.copyload, %2
  %14 = tail call ptr @evbuffer_pullup(ptr noundef nonnull %0, i64 noundef %13)
  %.not16 = icmp eq ptr %14, null
  %15 = getelementptr inbounds nuw i8, ptr %14, i64 %.sroa.0.0.copyload
  %spec.select = select i1 %.not16, ptr null, ptr %15
  br label %16

16:                                               ; preds = %12, %10
  %.0 = phi ptr [ null, %10 ], [ %spec.select, %12 ]
  %17 = load ptr, ptr %5, align 8
  %.not17 = icmp eq ptr %17, null
  br i1 %.not17, label %21, label %18

18:                                               ; preds = %16
  %19 = load ptr, ptr getelementptr inbounds nuw (i8, ptr @evthread_lock_fns_, i64 32), align 8
  %20 = tail call i32 %19(i32 noundef 0, ptr noundef nonnull %17) #16
  br label %21

21:                                               ; preds = %18, %16
  ret ptr %.0
}